; Function Attrs: mustprogress uwtable
define noundef i32 @_ZN6icu_7519CollationRuleParser13getOnOffValueERKNS_13UnicodeStringE(ptr noundef nonnull align 8 dereferenceable(64) %s) local_unnamed_addr #1 align 2 personality ptr @__gxx_personality_v0 {
entry:
  %ref.tmp = alloca %"class.icu_75::UnicodeString", align 8
  %agg.tmp = alloca %"class.icu_75::ConstChar16Ptr", align 8
  %ref.tmp3 = alloca %"class.icu_75::UnicodeString", align 8
  %agg.tmp4 = alloca %"class.icu_75::ConstChar16Ptr", align 8
  store ptr @.str.56, ptr %agg.tmp, align 8
  invoke void @_ZN6icu_7513UnicodeStringC1EaNS_14ConstChar16PtrEi(ptr noundef nonnull align 8 dereferenceable(64) %ref.tmp, i8 noundef signext 1, ptr noundef nonnull %agg.tmp, i32 noundef -1)
          to label %invoke.cont unwind label %lpad

invoke.cont:                                      ; preds = %entry
  %fUnion.i.i = getelementptr inbounds i8, ptr %s, i64 8
  %0 = load i16, ptr %fUnion.i.i, align 8
  %conv2.i14.i = and i16 %0, 1
  %tobool.not.i = icmp eq i16 %conv2.i14.i, 0
  br i1 %tobool.not.i, label %if.else.i, label %if.then.i

if.then.i:                                        ; preds = %invoke.cont
  %fUnion.i5.i = getelementptr inbounds i8, ptr %ref.tmp, i64 8
  %1 = load i16, ptr %fUnion.i5.i, align 8
  %conv2.i615.i = and i16 %1, 1
  %tobool3.i = icmp ne i16 %conv2.i615.i, 0
  br label %invoke.cont2

if.else.i:                                        ; preds = %invoke.cont
  %cmp.i.i.i = icmp slt i16 %0, 0
  %2 = ashr i16 %0, 5
  %shr.i.i.i = sext i16 %2 to i32
  %fLength.i.i = getelementptr inbounds i8, ptr %s, i64 12
  %3 = load i32, ptr %fLength.i.i, align 4
  %cond.i.i = select i1 %cmp.i.i.i, i32 %3, i32 %shr.i.i.i
  %fUnion.i.i7.i = getelementptr inbounds i8, ptr %ref.tmp, i64 8
  %4 = load i16, ptr %fUnion.i.i7.i, align 8
  %cmp.i.i8.i = icmp slt i16 %4, 0
  %5 = ashr i16 %4, 5
  %shr.i.i9.i = sext i16 %5 to i32
  %fLength.i10.i = getelementptr inbounds i8, ptr %ref.tmp, i64 12
  %6 = load i32, ptr %fLength.i10.i, align 4
  %cond.i11.i = select i1 %cmp.i.i8.i, i32 %6, i32 %shr.i.i9.i
  %conv2.i1316.i = and i16 %4, 1
  %tobool7.not.i = icmp eq i16 %conv2.i1316.i, 0
  %cmp.i = icmp eq i32 %cond.i.i, %cond.i11.i
  %or.cond.i = and i1 %tobool7.not.i, %cmp.i
  br i1 %or.cond.i, label %land.rhs.i, label %if.else.critedge

land.rhs.i:                                       ; preds = %if.else.i
  %call8.i6 = invoke noundef signext i8 @_ZNK6icu_7513UnicodeString8doEqualsERKS0_i(ptr noundef nonnull align 8 dereferenceable(64) %s, ptr noundef nonnull align 8 dereferenceable(64) %ref.tmp, i32 noundef %cond.i.i)
          to label %call8.i.noexc unwind label %lpad1

call8.i.noexc:                                    ; preds = %land.rhs.i
  %tobool9.i = icmp ne i8 %call8.i6, 0
  br label %invoke.cont2

invoke.cont2:                                     ; preds = %call8.i.noexc, %if.then.i
  %retval.0.i = phi i1 [ %tobool3.i, %if.then.i ], [ %tobool9.i, %call8.i.noexc ]
  call void @_ZN6icu_7513UnicodeStringD1Ev(ptr noundef nonnull align 8 dereferenceable(64) %ref.tmp) #14
  %7 = load ptr, ptr %agg.tmp, align 8
  call void asm sideeffect "", "rm,~{memory},~{dirflag},~{fpsr},~{flags}"(ptr %7) #14, !srcloc !8
  br i1 %retval.0.i, label %return, label %if.else

lpad:                                             ; preds = %entry
  %8 = landingpad { ptr, i32 }
          cleanup
  br label %ehcleanup

lpad1:                                            ; preds = %land.rhs.i
  %9 = landingpad { ptr, i32 }
          cleanup
  call void @_ZN6icu_7513UnicodeStringD1Ev(ptr noundef nonnull align 8 dereferenceable(64) %ref.tmp) #14
  br label %ehcleanup

ehcleanup:                                        ; preds = %lpad1, %lpad
  %.pn = phi { ptr, i32 } [ %9, %lpad1 ], [ %8, %lpad ]
  %10 = load ptr, ptr %agg.tmp, align 8
  call void asm sideeffect "", "rm,~{memory},~{dirflag},~{fpsr},~{flags}"(ptr %10) #14, !srcloc !8
  br label %eh.resume

if.else.critedge:                                 ; preds = %if.else.i
  call void @_ZN6icu_7513UnicodeStringD1Ev(ptr noundef nonnull align 8 dereferenceable(64) %ref.tmp) #14
  %11 = load ptr, ptr %agg.tmp, align 8
  call void asm sideeffect "", "rm,~{memory},~{dirflag},~{fpsr},~{flags}"(ptr %11) #14, !srcloc !8
  br label %if.else

if.else:                                          ; preds = %if.else.critedge, %invoke.cont2
  store ptr @.str.35, ptr %agg.tmp4, align 8
  invoke void @_ZN6icu_7513UnicodeStringC1EaNS_14ConstChar16PtrEi(ptr noundef nonnull align 8 dereferenceable(64) %ref.tmp3, i8 noundef signext 1, ptr noundef nonnull %agg.tmp4, i32 noundef -1)
          to label %invoke.cont6 unwind label %lpad5

invoke.cont6:                                     ; preds = %if.else
  %12 = load i16, ptr %fUnion.i.i, align 8
  %conv2.i14.i8 = and i16 %12, 1
  %tobool.not.i9 = icmp eq i16 %conv2.i14.i8, 0
  br i1 %tobool.not.i9, label %if.else.i15, label %if.then.i10

if.then.i10:                                      ; preds = %invoke.cont6
  %fUnion.i5.i11 = getelementptr inbounds i8, ptr %ref.tmp3, i64 8
  %13 = load i16, ptr %fUnion.i5.i11, align 8
  %.fr = freeze i16 %13
  %conv2.i615.i12 = and i16 %.fr, 1
  %tobool3.i13 = icmp ne i16 %conv2.i615.i12, 0
  br label %invoke.cont8

if.else.i15:                                      ; preds = %invoke.cont6
  %cmp.i.i.i16 = icmp slt i16 %12, 0
  %14 = ashr i16 %12, 5
  %shr.i.i.i17 = sext i16 %14 to i32
  %fLength.i.i18 = getelementptr inbounds i8, ptr %s, i64 12
  %15 = load i32, ptr %fLength.i.i18, align 4
  %cond.i.i19 = select i1 %cmp.i.i.i16, i32 %15, i32 %shr.i.i.i17
  %fUnion.i.i7.i20 = getelementptr inbounds i8, ptr %ref.tmp3, i64 8
  %16 = load i16, ptr %fUnion.i.i7.i20, align 8
  %cmp.i.i8.i21 = icmp slt i16 %16, 0
  %17 = ashr i16 %16, 5
  %shr.i.i9.i22 = sext i16 %17 to i32
  %fLength.i10.i23 = getelementptr inbounds i8, ptr %ref.tmp3, i64 12
  %18 = load i32, ptr %fLength.i10.i23, align 4
  %cond.i11.i24 = select i1 %cmp.i.i8.i21, i32 %18, i32 %shr.i.i9.i22
  %conv2.i1316.i25 = and i16 %16, 1
  %tobool7.not.i26 = icmp eq i16 %conv2.i1316.i25, 0
  %cmp.i27 = icmp eq i32 %cond.i.i19, %cond.i11.i24
  %or.cond.i28 = and i1 %tobool7.not.i26, %cmp.i27
  br i1 %or.cond.i28, label %land.rhs.i29, label %invoke.cont8

land.rhs.i29:                                     ; preds = %if.else.i15
  %call8.i32 = invoke noundef signext i8 @_ZNK6icu_7513UnicodeString8doEqualsERKS0_i(ptr noundef nonnull align 8 dereferenceable(64) %s, ptr noundef nonnull align 8 dereferenceable(64) %ref.tmp3, i32 noundef %cond.i.i19)
          to label %call8.i.noexc31 unwind label %lpad7

call8.i.noexc31:                                  ; preds = %land.rhs.i29
  %tobool9.i30 = icmp ne i8 %call8.i32, 0
  br label %invoke.cont8

invoke.cont8:                                     ; preds = %call8.i.noexc31, %if.else.i15, %if.then.i10
  %retval.0.i14 = phi i1 [ %tobool3.i13, %if.then.i10 ], [ false, %if.else.i15 ], [ %tobool9.i30, %call8.i.noexc31 ]
  call void @_ZN6icu_7513UnicodeStringD1Ev(ptr noundef nonnull align 8 dereferenceable(64) %ref.tmp3) #14
  %19 = load ptr, ptr %agg.tmp4, align 8
  call void asm sideeffect "", "rm,~{memory},~{dirflag},~{fpsr},~{flags}"(ptr %19) #14, !srcloc !8
  %spec.select = select i1 %retval.0.i14, i32 16, i32 -1
  br label %return

lpad5:                                            ; preds = %if.else
  %20 = landingpad { ptr, i32 }
          cleanup
  br label %ehcleanup11

lpad7:                                            ; preds = %land.rhs.i29
  %21 = landingpad { ptr, i32 }
          cleanup
  call void @_ZN6icu_7513UnicodeStringD1Ev(ptr noundef nonnull align 8 dereferenceable(64) %ref.tmp3) #14
  br label %ehcleanup11

ehcleanup11:                                      ; preds = %lpad7, %lpad5
  %.pn3 = phi { ptr, i32 } [ %21, %lpad7 ], [ %20, %lpad5 ]
  %22 = load ptr, ptr %agg.tmp4, align 8
  call void asm sideeffect "", "rm,~{memory},~{dirflag},~{fpsr},~{flags}"(ptr %22) #14, !srcloc !8
  br label %eh.resume

return:                                           ; preds = %invoke.cont8, %invoke.cont2
  %retval.0 = phi i32 [ 17, %invoke.cont2 ], [ %spec.select, %invoke.cont8 ]
  ret i32 %retval.0

eh.resume:                                        ; preds = %ehcleanup11, %ehcleanup
  %.pn3.pn = phi { ptr, i32 } [ %.pn3, %ehcleanup11 ], [ %.pn, %ehcleanup ]
  resume { ptr, i32 } %.pn3.pn
}